target datalayout = "e-m:e-p270:32:32-p271:32:32-p272:64:64-i64:64-i128:128-f80:128-n8:16:32:64-S128"
target triple = "x86_64-pc-linux-gnu"

%struct.siv128_context = type { %union.siv_block_u, %union.siv_block_u, ptr, ptr, ptr, i32, i32 }
%union.siv_block_u = type { [2 x i64] }

; Function Attrs: inlinehint nounwind uwtable
define internal i32 @siv128_do_encrypt(ptr noundef %0, ptr noundef %1, ptr noundef %2, i64 noundef %3, ptr noundef %4) #5 {
  %6 = alloca i32, align 4
  %7 = alloca ptr, align 8
  %8 = alloca ptr, align 8
  %9 = alloca ptr, align 8
  %10 = alloca i64, align 8
  %11 = alloca ptr, align 8
  %12 = alloca i32, align 4
  %13 = alloca i32, align 4
  store ptr %0, ptr %7, align 8, !tbaa !33
  store ptr %1, ptr %8, align 8, !tbaa !3
  store ptr %2, ptr %9, align 8, !tbaa !3
  store i64 %3, ptr %10, align 8, !tbaa !16
  store ptr %4, ptr %11, align 8, !tbaa !30
  call void @llvm.lifetime.start.p0(i64 4, ptr %12) #6
  %14 = load i64, ptr %10, align 8, !tbaa !16
  %15 = trunc i64 %14 to i32
  store i32 %15, ptr %12, align 4, !tbaa !8
  %16 = load ptr, ptr %7, align 8, !tbaa !33
  %17 = load ptr, ptr %11, align 8, !tbaa !30
  %18 = getelementptr inbounds [16 x i8], ptr %17, i64 0, i64 0
  %19 = call i32 @EVP_CipherInit_ex(ptr noundef %16, ptr noundef null, ptr noundef null, ptr noundef null, ptr noundef %18, i32 noundef 1)
  %20 = icmp ne i32 %19, 0
  br i1 %20, label %22, label %21

21:                                               ; preds = %5
  store i32 0, ptr %6, align 4
  store i32 1, ptr %13, align 4
  br label %28

22:                                               ; preds = %5
  %23 = load ptr, ptr %7, align 8, !tbaa !33
  %24 = load ptr, ptr %8, align 8, !tbaa !3
  %25 = load ptr, ptr %9, align 8, !tbaa !3
  %26 = load i32, ptr %12, align 4, !tbaa !8
  %27 = call i32 @EVP_EncryptUpdate(ptr noundef %23, ptr noundef %24, ptr noundef %12, ptr noundef %25, i32 noundef %26)
  store i32 %27, ptr %6, align 4
  store i32 1, ptr %13, align 4
  br label %28

28:                                               ; preds = %22, %21
  call void @llvm.lifetime.end.p0(i64 4, ptr %12) #6
  %29 = load i32, ptr %6, align 4
  ret i32 %29
}

; Function Attrs: nounwind uwtable
define i32 @ossl_siv128_decrypt(ptr noundef %0, ptr noundef %1, ptr noundef %2, i64 noundef %3) #0 {
  %5 = alloca i32, align 4
  %6 = alloca ptr, align 8
  %7 = alloca ptr, align 8
  %8 = alloca ptr, align 8
  %9 = alloca i64, align 8
  %10 = alloca ptr, align 8
  %11 = alloca %union.siv_block_u, align 8
  %12 = alloca %union.siv_block_u, align 8
  %13 = alloca i32, align 4
  %14 = alloca i32, align 4
  store ptr %0, ptr %6, align 8, !tbaa !14
  store ptr %1, ptr %7, align 8, !tbaa !3
  store ptr %2, ptr %8, align 8, !tbaa !3
  store i64 %3, ptr %9, align 8, !tbaa !16
  call void @llvm.lifetime.start.p0(i64 8, ptr %10) #6
  call void @llvm.lifetime.start.p0(i64 16, ptr %11) #6
  call void @llvm.lifetime.start.p0(i64 16, ptr %12) #6
  call void @llvm.lifetime.start.p0(i64 4, ptr %13) #6
  %15 = load ptr, ptr %6, align 8, !tbaa !14
  %16 = getelementptr inbounds nuw %struct.siv128_context, ptr %15, i32 0, i32 6
  %17 = load i32, ptr %16, align 4, !tbaa !29
  %18 = icmp eq i32 %17, 0
  br i1 %18, label %19, label %20

19:                                               ; preds = %4
  store i32 0, ptr %5, align 4
  store i32 1, ptr %14, align 4
  br label %92

20:                                               ; preds = %4
  %21 = load ptr, ptr %6, align 8, !tbaa !14
  %22 = getelementptr inbounds nuw %struct.siv128_context, ptr %21, i32 0, i32 6
  %23 = load i32, ptr %22, align 4, !tbaa !29
  %24 = add nsw i32 %23, -1
  store i32 %24, ptr %22, align 4, !tbaa !29
  %25 = load ptr, ptr %6, align 8, !tbaa !14
  %26 = getelementptr inbounds nuw %struct.siv128_context, ptr %25, i32 0, i32 1
  %27 = getelementptr inbounds [16 x i8], ptr %26, i64 0, i64 0
  call void @llvm.memcpy.p0.p0.i64(ptr align 8 %12, ptr align 8 %27, i64 16, i1 false)
  %28 = getelementptr inbounds [16 x i8], ptr %12, i64 0, i64 8
  %29 = load i8, ptr %28, align 8, !tbaa !32
  %30 = zext i8 %29 to i32
  %31 = and i32 %30, 127
  %32 = trunc i32 %31 to i8
  store i8 %32, ptr %28, align 8, !tbaa !32
  %33 = getelementptr inbounds [16 x i8], ptr %12, i64 0, i64 12
  %34 = load i8, ptr %33, align 4, !tbaa !32
  %35 = zext i8 %34 to i32
  %36 = and i32 %35, 127
  %37 = trunc i32 %36 to i8
  store i8 %37, ptr %33, align 4, !tbaa !32
  %38 = load ptr, ptr %6, align 8, !tbaa !14
  %39 = getelementptr inbounds nuw %struct.siv128_context, ptr %38, i32 0, i32 2
  %40 = load ptr, ptr %39, align 8, !tbaa !20
  %41 = load ptr, ptr %8, align 8, !tbaa !3
  %42 = load ptr, ptr %7, align 8, !tbaa !3
  %43 = load i64, ptr %9, align 8, !tbaa !16
  %44 = call i32 @siv128_do_encrypt(ptr noundef %40, ptr noundef %41, ptr noundef %42, i64 noundef %43, ptr noundef %12)
  %45 = icmp ne i32 %44, 0
  br i1 %45, label %46, label %52

46:                                               ; preds = %20
  %47 = load ptr, ptr %6, align 8, !tbaa !14
  %48 = load ptr, ptr %8, align 8, !tbaa !3
  %49 = load i64, ptr %9, align 8, !tbaa !16
  %50 = call i32 @siv128_do_s2v_p(ptr noundef %47, ptr noundef %11, ptr noundef %48, i64 noundef %49)
  %51 = icmp ne i32 %50, 0
  br i1 %51, label %53, label %52

52:                                               ; preds = %46, %20
  store i32 0, ptr %5, align 4
  store i32 1, ptr %14, align 4
  br label %92

53:                                               ; preds = %46
  %54 = load ptr, ptr %6, align 8, !tbaa !14
  %55 = getelementptr inbounds nuw %struct.siv128_context, ptr %54, i32 0, i32 1
  %56 = getelementptr inbounds [16 x i8], ptr %55, i64 0, i64 0
  store ptr %56, ptr %10, align 8, !tbaa !3
  store i32 0, ptr %13, align 4, !tbaa !8
  br label %57

57:                                               ; preds = %74, %53
  %58 = load i32, ptr %13, align 4, !tbaa !8
  %59 = icmp slt i32 %58, 16
  br i1 %59, label %60, label %77

60:                                               ; preds = %57
  %61 = load ptr, ptr %10, align 8, !tbaa !3
  %62 = load i32, ptr %13, align 4, !tbaa !8
  %63 = sext i32 %62 to i64
  %64 = getelementptr inbounds i8, ptr %61, i64 %63
  %65 = load i8, ptr %64, align 1, !tbaa !32
  %66 = zext i8 %65 to i32
  %67 = load i32, ptr %13, align 4, !tbaa !8
  %68 = sext i32 %67 to i64
  %69 = getelementptr inbounds [16 x i8], ptr %11, i64 0, i64 %68
  %70 = load i8, ptr %69, align 1, !tbaa !32
  %71 = zext i8 %70 to i32
  %72 = xor i32 %71, %66
  %73 = trunc i32 %72 to i8
  store i8 %73, ptr %69, align 1, !tbaa !32
  br label %74

74:                                               ; preds = %60
  %75 = load i32, ptr %13, align 4, !tbaa !8
  %76 = add nsw i32 %75, 1
  store i32 %76, ptr %13, align 4, !tbaa !8
  br label %57, !llvm.loop !34

77:                                               ; preds = %57
  %78 = getelementptr inbounds [2 x i64], ptr %11, i64 0, i64 0
  %79 = load i64, ptr %78, align 8, !tbaa !32
  %80 = getelementptr inbounds [2 x i64], ptr %11, i64 0, i64 1
  %81 = load i64, ptr %80, align 8, !tbaa !32
  %82 = or i64 %79, %81
  %83 = icmp ne i64 %82, 0
  br i1 %83, label %84, label %87

84:                                               ; preds = %77
  %85 = load ptr, ptr %8, align 8, !tbaa !3
  %86 = load i64, ptr %9, align 8, !tbaa !16
  call void @OPENSSL_cleanse(ptr noundef %85, i64 noundef %86)
  store i32 0, ptr %5, align 4
  store i32 1, ptr %14, align 4
  br label %92

87:                                               ; preds = %77
  %88 = load ptr, ptr %6, align 8, !tbaa !14
  %89 = getelementptr inbounds nuw %struct.siv128_context, ptr %88, i32 0, i32 5
  store i32 0, ptr %89, align 8, !tbaa !28
  %90 = load i64, ptr %9, align 8, !tbaa !16
  %91 = trunc i64 %90 to i32
  store i32 %91, ptr %5, align 4
  store i32 1, ptr %14, align 4
  br label %92

92:                                               ; preds = %87, %84, %52, %19
  call void @llvm.lifetime.end.p0(i64 4, ptr %13) #6
  call void @llvm.lifetime.end.p0(i64 16, ptr %12) #6
  call void @llvm.lifetime.end.p0(i64 16, ptr %11) #6
  call void @llvm.lifetime.end.p0(i64 8, ptr %10) #6
  %93 = load i32, ptr %5, align 4
  ret i32 %93
}