; Function Attrs: nounwind uwtable
define noundef i32 @ossl_siv128_decrypt(ptr noundef captures(none) %0, ptr noundef %1, ptr noundef %2, i64 noundef %3) local_unnamed_addr #0 {
  %5 = alloca i32, align 4
  %6 = alloca %union.siv_block_u, align 8
  %7 = alloca %union.siv_block_u, align 8
  call void @llvm.lifetime.start.p0(i64 16, ptr nonnull %6) #10
  call void @llvm.lifetime.start.p0(i64 16, ptr nonnull %7) #10
  %8 = getelementptr inbounds nuw i8, ptr %0, i64 60
  %9 = load i32, ptr %8, align 4, !tbaa !22
  %10 = icmp eq i32 %9, 0
  br i1 %10, label %40, label %11

11:                                               ; preds = %4
  %12 = add nsw i32 %9, -1
  store i32 %12, ptr %8, align 4, !tbaa !22
  %13 = getelementptr inbounds nuw i8, ptr %0, i64 16
  call void @llvm.memcpy.p0.p0.i64(ptr noundef nonnull align 8 dereferenceable(16) %7, ptr noundef nonnull align 8 dereferenceable(16) %13, i64 16, i1 false)
  %14 = getelementptr inbounds nuw i8, ptr %7, i64 8
  %15 = load i8, ptr %14, align 8, !tbaa !23
  %16 = and i8 %15, 127
  store i8 %16, ptr %14, align 8, !tbaa !23
  %17 = getelementptr inbounds nuw i8, ptr %7, i64 12
  %18 = load i8, ptr %17, align 4, !tbaa !23
  %19 = and i8 %18, 127
  store i8 %19, ptr %17, align 4, !tbaa !23
  %20 = getelementptr inbounds nuw i8, ptr %0, i64 32
  %21 = load ptr, ptr %20, align 8, !tbaa !7
  call void @llvm.lifetime.start.p0(i64 4, ptr nonnull %5) #10
  %22 = trunc i64 %3 to i32
  store i32 %22, ptr %5, align 4, !tbaa !19
  %23 = call i32 @EVP_CipherInit_ex(ptr noundef %21, ptr noundef null, ptr noundef null, ptr noundef null, ptr noundef nonnull %7, i32 noundef 1) #10
  %.not.i = icmp eq i32 %23, 0
  br i1 %.not.i, label %siv128_do_encrypt.exit.thread, label %siv128_do_encrypt.exit

siv128_do_encrypt.exit.thread:                    ; preds = %11
  call void @llvm.lifetime.end.p0(i64 4, ptr nonnull %5) #10
  br label %40

siv128_do_encrypt.exit:                           ; preds = %11
  %24 = call i32 @EVP_EncryptUpdate(ptr noundef %21, ptr noundef %2, ptr noundef nonnull %5, ptr noundef %1, i32 noundef %22) #10
  call void @llvm.lifetime.end.p0(i64 4, ptr nonnull %5) #10
  %.not = icmp eq i32 %24, 0
  br i1 %.not, label %40, label %25

25:                                               ; preds = %siv128_do_encrypt.exit
  %26 = call fastcc i32 @siv128_do_s2v_p(ptr noundef nonnull %0, ptr noundef %6, ptr noundef %2, i64 noundef %3)
  %.not22 = icmp eq i32 %26, 0
  br i1 %.not22, label %40, label %.preheader

.preheader:                                       ; preds = %25, %.preheader
  %indvars.iv = phi i64 [ %indvars.iv.next, %.preheader ], [ 0, %25 ]
  %27 = getelementptr inbounds nuw i8, ptr %13, i64 %indvars.iv
  %28 = load i8, ptr %27, align 1, !tbaa !23
  %29 = getelementptr inbounds nuw [16 x i8], ptr %6, i64 0, i64 %indvars.iv
  %30 = load i8, ptr %29, align 1, !tbaa !23
  %31 = xor i8 %30, %28
  store i8 %31, ptr %29, align 1, !tbaa !23
  %indvars.iv.next = add nuw nsw i64 %indvars.iv, 1
  %exitcond.not = icmp eq i64 %indvars.iv.next, 16
  br i1 %exitcond.not, label %32, label %.preheader, !llvm.loop !24

32:                                               ; preds = %.preheader
  %33 = load i64, ptr %6, align 8, !tbaa !23
  %34 = getelementptr inbounds nuw i8, ptr %6, i64 8
  %35 = load i64, ptr %34, align 8, !tbaa !23
  %36 = or i64 %35, %33
  %.not23 = icmp eq i64 %36, 0
  br i1 %.not23, label %38, label %37

37:                                               ; preds = %32
  call void @OPENSSL_cleanse(ptr noundef %2, i64 noundef %3) #10
  br label %40

38:                                               ; preds = %32
  %39 = getelementptr inbounds nuw i8, ptr %0, i64 56
  store i32 0, ptr %39, align 8, !tbaa !21
  br label %40

40:                                               ; preds = %siv128_do_encrypt.exit.thread, %siv128_do_encrypt.exit, %25, %4, %38, %37
  %.020 = phi i32 [ 0, %37 ], [ %22, %38 ], [ 0, %4 ], [ 0, %25 ], [ 0, %siv128_do_encrypt.exit ], [ 0, %siv128_do_encrypt.exit.thread ]
  call void @llvm.lifetime.end.p0(i64 16, ptr nonnull %7) #10
  call void @llvm.lifetime.end.p0(i64 16, ptr nonnull %6) #10
  ret i32 %.020
}